target datalayout = "e-m:e-p270:32:32-p271:32:32-p272:64:64-i64:64-i128:128-f80:128-n8:16:32:64-S128"
target triple = "x86_64-pc-linux-gnu"

@.str.18 = private unnamed_addr constant [3 x i8] c">=\00", align 1
@.str.53 = private unnamed_addr constant [7 x i8] c"time_t\00", align 1
@.str.54 = private unnamed_addr constant [22 x i8] c"[%s] compared to [%s]\00", align 1
@.str.55 = private unnamed_addr constant [7 x i8] c"<null>\00", align 1

; Function Attrs: nounwind uwtable
define internal ptr @print_time(ptr noundef %0) #0 {
  %2 = alloca ptr, align 8
  store ptr %0, ptr %2, align 8, !tbaa !20
  %3 = load ptr, ptr %2, align 8, !tbaa !20
  %4 = icmp eq ptr %3, null
  br i1 %4, label %5, label %6

5:                                                ; preds = %1
  br label %9

6:                                                ; preds = %1
  %7 = load ptr, ptr %2, align 8, !tbaa !20
  %8 = call ptr @ASN1_STRING_get0_data(ptr noundef %7)
  br label %9

9:                                                ; preds = %6, %5
  %10 = phi ptr [ @.str.55, %5 ], [ %8, %6 ]
  ret ptr %10
}

; Function Attrs: nounwind uwtable
define i32 @test_time_t_ge(ptr noundef %0, i32 noundef %1, ptr noundef %2, ptr noundef %3, i64 noundef %4, i64 noundef %5) #0 {
  %7 = alloca ptr, align 8
  %8 = alloca i32, align 4
  %9 = alloca ptr, align 8
  %10 = alloca ptr, align 8
  %11 = alloca i64, align 8
  %12 = alloca i64, align 8
  %13 = alloca ptr, align 8
  %14 = alloca ptr, align 8
  %15 = alloca i32, align 4
  store ptr %0, ptr %7, align 8, !tbaa !3
  store i32 %1, ptr %8, align 4, !tbaa !8
  store ptr %2, ptr %9, align 8, !tbaa !3
  store ptr %3, ptr %10, align 8, !tbaa !3
  store i64 %4, ptr %11, align 8, !tbaa !13
  store i64 %5, ptr %12, align 8, !tbaa !13
  call void @llvm.lifetime.start.p0(i64 8, ptr %13) #7
  %16 = load i64, ptr %11, align 8, !tbaa !13
  %17 = call ptr @ASN1_TIME_set(ptr noundef null, i64 noundef %16)
  store ptr %17, ptr %13, align 8, !tbaa !20
  call void @llvm.lifetime.start.p0(i64 8, ptr %14) #7
  %18 = load i64, ptr %12, align 8, !tbaa !13
  %19 = call ptr @ASN1_TIME_set(ptr noundef null, i64 noundef %18)
  store ptr %19, ptr %14, align 8, !tbaa !20
  call void @llvm.lifetime.start.p0(i64 4, ptr %15) #7
  %20 = load ptr, ptr %13, align 8, !tbaa !20
  %21 = icmp ne ptr %20, null
  br i1 %21, label %22, label %30

22:                                               ; preds = %6
  %23 = load ptr, ptr %14, align 8, !tbaa !20
  %24 = icmp ne ptr %23, null
  br i1 %24, label %25, label %30

25:                                               ; preds = %22
  %26 = load ptr, ptr %13, align 8, !tbaa !20
  %27 = load ptr, ptr %14, align 8, !tbaa !20
  %28 = call i32 @ASN1_TIME_compare(ptr noundef %26, ptr noundef %27)
  %29 = icmp sge i32 %28, 0
  br label %30

30:                                               ; preds = %25, %22, %6
  %31 = phi i1 [ false, %22 ], [ false, %6 ], [ %29, %25 ]
  %32 = zext i1 %31 to i32
  store i32 %32, ptr %15, align 4, !tbaa !8
  %33 = load i32, ptr %15, align 4, !tbaa !8
  %34 = icmp ne i32 %33, 0
  br i1 %34, label %44, label %35

35:                                               ; preds = %30
  %36 = load ptr, ptr %7, align 8, !tbaa !3
  %37 = load i32, ptr %8, align 4, !tbaa !8
  %38 = load ptr, ptr %9, align 8, !tbaa !3
  %39 = load ptr, ptr %10, align 8, !tbaa !3
  %40 = load ptr, ptr %13, align 8, !tbaa !20
  %41 = call ptr @print_time(ptr noundef %40)
  %42 = load ptr, ptr %14, align 8, !tbaa !20
  %43 = call ptr @print_time(ptr noundef %42)
  call void (ptr, ptr, i32, ptr, ptr, ptr, ptr, ptr, ...) @test_fail_message(ptr noundef null, ptr noundef %36, i32 noundef %37, ptr noundef @.str.53, ptr noundef %38, ptr noundef %39, ptr noundef @.str.18, ptr noundef @.str.54, ptr noundef %41, ptr noundef %43)
  br label %44

44:                                               ; preds = %35, %30
  %45 = load ptr, ptr %13, align 8, !tbaa !20
  call void @ASN1_STRING_free(ptr noundef %45)
  %46 = load ptr, ptr %14, align 8, !tbaa !20
  call void @ASN1_STRING_free(ptr noundef %46)
  %47 = load i32, ptr %15, align 4, !tbaa !8
  call void @llvm.lifetime.end.p0(i64 4, ptr %15) #7
  call void @llvm.lifetime.end.p0(i64 8, ptr %14) #7
  call void @llvm.lifetime.end.p0(i64 8, ptr %13) #7
  ret i32 %47
}